; Function Attrs: mustprogress uwtable
define hidden void @_ZN5osgeo4proj2cs20CoordinateSystemAxis15createLONG_EASTERKNS0_6common13UnitOfMeasureE(ptr dead_on_unwind noalias writable sret(%"class.dropbox::oxygen::nn.67") align 8 %0, ptr noundef nonnull align 8 dereferenceable(24) %1) local_unnamed_addr #0 align 2 personality ptr @__gxx_personality_v0 {
  %3 = alloca %"class.osgeo::proj::util::PropertyMap", align 8
  %4 = alloca %"class.std::shared_ptr", align 8
  call void @llvm.lifetime.start.p0(i64 8, ptr nonnull %3) #33
  call void @_ZN5osgeo4proj4util11PropertyMapC1Ev(ptr noundef nonnull align 8 dereferenceable(8) %3)
  %5 = invoke noundef nonnull align 8 dereferenceable(8) ptr @_ZN5osgeo4proj4util11PropertyMap3setERKNSt7__cxx1112basic_stringIcSt11char_traitsIcESaIcEEESA_(ptr noundef nonnull align 8 dereferenceable(8) %3, ptr noundef nonnull align 8 dereferenceable(32) @_ZN5osgeo4proj6common16IdentifiedObject8NAME_KEYB5cxx11E, ptr noundef nonnull align 8 dereferenceable(32) @_ZN5osgeo4proj2cs8AxisName9LongitudeB5cxx11E)
          to label %6 unwind label %7

6:                                                ; preds = %2
  call void @llvm.lifetime.start.p0(i64 16, ptr nonnull %4) #33
  call void @llvm.memset.p0.i64(ptr noundef nonnull align 8 dereferenceable(16) %4, i8 0, i64 16, i1 false)
  invoke void @_ZN5osgeo4proj2cs20CoordinateSystemAxis6createERKNS0_4util11PropertyMapERKNSt7__cxx1112basic_stringIcSt11char_traitsIcESaIcEEERKNS1_13AxisDirectionERKNS0_6common13UnitOfMeasureERKSt10shared_ptrINS1_8MeridianEE(ptr dead_on_unwind writable sret(%"class.dropbox::oxygen::nn.67") align 8 %0, ptr noundef nonnull align 8 dereferenceable(8) %5, ptr noundef nonnull align 8 dereferenceable(32) @_ZN5osgeo4proj2cs16AxisAbbreviation3lonB5cxx11E, ptr noundef nonnull align 8 dereferenceable(32) @_ZN5osgeo4proj2cs13AxisDirection4EASTE, ptr noundef nonnull align 8 dereferenceable(24) %1, ptr noundef nonnull align 8 dereferenceable(16) %4)
          to label %_ZNSt12__shared_ptrIN5osgeo4proj2cs8MeridianELN9__gnu_cxx12_Lock_policyE2EED2Ev.exit unwind label %9

_ZNSt12__shared_ptrIN5osgeo4proj2cs8MeridianELN9__gnu_cxx12_Lock_policyE2EED2Ev.exit: ; preds = %6
  call void @llvm.lifetime.end.p0(i64 16, ptr nonnull %4) #33
  call void @_ZN5osgeo4proj4util11PropertyMapD1Ev(ptr noundef nonnull align 8 dereferenceable(8) %3) #33
  call void @llvm.lifetime.end.p0(i64 8, ptr nonnull %3) #33
  ret void

7:                                                ; preds = %2
  %8 = landingpad { ptr, i32 }
          cleanup
  br label %11

9:                                                ; preds = %6
  %10 = landingpad { ptr, i32 }
          cleanup
  call void @_ZNSt12__shared_ptrIN5osgeo4proj2cs8MeridianELN9__gnu_cxx12_Lock_policyE2EED2Ev(ptr noundef nonnull align 8 dereferenceable(16) %4) #33
  call void @llvm.lifetime.end.p0(i64 16, ptr nonnull %4) #33
  br label %11

11:                                               ; preds = %9, %7
  %.pn = phi { ptr, i32 } [ %10, %9 ], [ %8, %7 ]
  call void @_ZN5osgeo4proj4util11PropertyMapD1Ev(ptr noundef nonnull align 8 dereferenceable(8) %3) #33
  call void @llvm.lifetime.end.p0(i64 8, ptr nonnull %3) #33
  resume { ptr, i32 } %.pn
}